ccopy_reg
_reconstructor
p0
(cga
GFS
p1
c__builtin__
object
p2
Ntp3
Rp4
(dp5
S'impMethod'
p6
S'min'
p7
sS'rule_selection'
p8
I118621736
sS'name'
p9
S''
p10
sS'defuzzMethod'
p11
S'centroid'
p12
sS'defuzz'
p13
(dp14
g12
cyapflm
defuzzCentroid
p15
ssS'numOutMFs'
p16
(lp17
I3
asS'numParams'
p18
I27
sS'andMethod'
p19
g7
sS'rule'
p20
(lp21
g0
(cyapflm
Rule
p22
g2
Ntp23
Rp24
(dp25
S'antecedent'
p26
(I0
I1
tp27
sS'connection'
p28
I0
sS'weight'
p29
I1
sS'consequent'
p30
(I0
tp31
sbag0
(g22
g2
Ntp32
Rp33
(dp34
g26
(I0
I1
tp35
sg28
I0
sg29
I1
sg30
(I2
tp36
sbag0
(g22
g2
Ntp37
Rp38
(dp39
g26
(I1
I0
tp40
sg28
I0
sg29
I1
sg30
(I0
tp41
sbag0
(g22
g2
Ntp42
Rp43
(dp44
g26
(I1
I0
tp45
sg28
I0
sg29
I1
sg30
(I1
tp46
sbag0
(g22
g2
Ntp47
Rp48
(dp49
g26
(I1
I2
tp50
sg28
I0
sg29
I1
sg30
(I2
tp51
sbag0
(g22
g2
Ntp52
Rp53
(dp54
g26
(I2
I0
tp55
sg28
I0
sg29
I1
sg30
(I2
tp56
sbag0
(g22
g2
Ntp57
Rp58
(dp59
g26
(I2
I2
tp60
sg28
I0
sg29
I1
sg30
(I0
tp61
sbag0
(g22
g2
Ntp62
Rp63
(dp64
g26
(I2
I2
tp65
sg28
I0
sg29
I1
sg30
(I1
tp66
sbag0
(g22
g2
Ntp67
Rp68
(dp69
g26
(I2
I2
tp70
sg28
I0
sg29
I1
sg30
(I2
tp71
sbasS'_mfList'
p72
(lp73
S'trimf'
p74
aS'trapmf'
p75
asS'orMethod'
p76
S'max'
p77
sS'rule_options'
p78
((I0
I0
I0
tp79
(I0
I0
I1
tp80
(I0
I0
I2
tp81
(I0
I1
I0
tp82
(I0
I1
I1
tp83
(I0
I1
I2
tp84
(I0
I2
I0
tp85
(I0
I2
I1
tp86
(I0
I2
I2
tp87
(I1
I0
I0
tp88
(I1
I0
I1
tp89
(I1
I0
I2
tp90
(I1
I1
I0
tp91
(I1
I1
I1
tp92
(I1
I1
I2
tp93
(I1
I2
I0
tp94
(I1
I2
I1
tp95
(I1
I2
I2
tp96
(I2
I0
I0
tp97
(I2
I0
I1
tp98
(I2
I0
I2
tp99
(I2
I1
I0
tp100
(I2
I1
I1
tp101
(I2
I1
I2
tp102
(I2
I2
I0
tp103
(I2
I2
I1
tp104
(I2
I2
I2
tp105
tp106
sS'init'
p107
(lp108
I33
aI0
aI3
aI0
asS'aggMethod'
p109
g77
sS'output'
p110
(lp111
g0
(cga
GenFuzzyVar
p112
g2
Ntp113
Rp114
(dp115
S'mf'
p116
(lp117
g0
(cyapflm
MF
p118
g2
Ntp119
Rp120
(dp121
S'params'
p122
(lp123
F-0.8645018373391793
aF0.477506592418633
aF0.8177671844055305
asS'range'
p124
(I-1
I1
tp125
sg116
cyapflm
mfTriangle
p126
sS'type'
p127
g74
sg9
S'a0'
p128
sbag0
(g118
g2
Ntp129
Rp130
(dp131
g122
(lp132
F-0.7645314834536692
aF-0.24778445807405824
aF0.04621835773004879
asg124
g125
sg116
g126
sg127
g74
sg9
S'b0'
p133
sbag0
(g118
g2
Ntp134
Rp135
(dp136
g122
(lp137
F-0.5294085433769922
aF-0.5132393186077866
aF0.37486458978893156
asg124
g125
sg116
g126
sg127
g74
sg9
S'c0'
p138
sbasg9
S'output0'
p139
sS'parent'
p140
g4
sg124
g125
sS'num'
p141
I0
sS'vartype'
p142
I0
sbasS'input'
p143
(lp144
g0
(g112
g2
Ntp145
Rp146
(dp147
g116
(lp148
g0
(g118
g2
Ntp149
Rp150
(dp151
g122
(lp152
F-0.39146981921378576
aF0.40973602529483477
aF0.7398961733432023
asg124
g125
sg116
g126
sg127
g74
sg9
S'a0'
p153
sbag0
(g118
g2
Ntp154
Rp155
(dp156
g122
(lp157
F-0.6375632754354852
aF0.367700913033151
aF0.7399591200549069
asg124
g125
sg116
g126
sg127
g74
sg9
S'b0'
p158
sbag0
(g118
g2
Ntp159
Rp160
(dp161
g122
(lp162
F-0.7982310614472523
aF0.008548471776057998
aF0.9541042027710713
asg124
g125
sg116
g126
sg127
g74
sg9
S'c0'
p163
sbasg9
S'input0'
p164
sg140
g4
sg124
g125
sg141
I0
sg142
I1
sbag0
(g112
g2
Ntp165
Rp166
(dp167
g116
(lp168
g0
(g118
g2
Ntp169
Rp170
(dp171
g122
(lp172
F-0.7308721189281135
aF-0.3399516269605358
aF-0.1332416126554945
asg124
g125
sg116
g126
sg127
g74
sg9
S'a1'
p173
sbag0
(g118
g2
Ntp174
Rp175
(dp176
g122
(lp177
F-0.6436558420430529
aF-0.08362850072395789
aF0.3433530924314512
asg124
g125
sg116
g126
sg127
g74
sg9
S'b1'
p178
sbag0
(g118
g2
Ntp179
Rp180
(dp181
g122
(lp182
F-0.5389154377886984
aF0.4603163026899655
aF0.8630581342256272
asg124
g125
sg116
g126
sg127
g74
sg9
S'c1'
p183
sbasg9
S'input1'
p184
sg140
g4
sg124
g125
sg141
I1
sg142
I1
sbasS'numInMFs'
p185
(lp186
I3
aI3
asg127
S'mamdani'
p187
sS'_points'
p188
I101
sS'keep_rules'
p189
I01
sb.